(dp0
S'D:\\Project\\LevelDb\\main.cpp'
p1
F1376544562.3633487
sS'D:\\Project\\LevelDb\\nosql_db_interface.cpp'
p2
F1376543185.0105686
sS'D:\\Project\\LevelDb\\CMakeLists.txt'
p3
F1376542012.1304836
sS'D:\\Project\\LevelDb\\nosql_db_interface.h'
p4
F1376536474.33674
s.